; Function Attrs: mustprogress nounwind uwtable
define void @_ZN14duckdb_parquet14DataPageHeaderD1Ev(ptr noundef nonnull align 8 captures(address) dereferenceable(185) initializes((0, 8), (24, 32)) %0) unnamed_addr #0 align 2 personality ptr @__gxx_personality_v0 {
  store ptr getelementptr inbounds nuw inrange(-48, 40) (i8, ptr @_ZTVN14duckdb_parquet14DataPageHeaderE, i64 48), ptr %0, align 8, !tbaa !22
  %2 = getelementptr inbounds nuw i8, ptr %0, i64 24
  store ptr getelementptr inbounds nuw inrange(-48, 40) (i8, ptr @_ZTVN14duckdb_parquet10StatisticsE, i64 48), ptr %2, align 8, !tbaa !22
  %3 = getelementptr inbounds nuw i8, ptr %0, i64 144
  %4 = load ptr, ptr %3, align 8, !tbaa !36
  %5 = getelementptr inbounds nuw i8, ptr %0, i64 160
  %6 = icmp eq ptr %4, %5
  br i1 %6, label %_ZNKSt7__cxx1112basic_stringIcSt11char_traitsIcESaIcEE11_M_is_localEv.exit.thread.i.i.i.i.i, label %_ZNKSt7__cxx1112basic_stringIcSt11char_traitsIcESaIcEE11_M_is_localEv.exit.i.i.i.i.i

_ZNKSt7__cxx1112basic_stringIcSt11char_traitsIcESaIcEE11_M_is_localEv.exit.thread.i.i.i.i.i: ; preds = %1
  %7 = getelementptr inbounds nuw i8, ptr %0, i64 152
  %8 = load i64, ptr %7, align 8, !tbaa !39
  %9 = icmp ult i64 %8, 16
  tail call void @llvm.assume(i1 %9)
  br label %_ZNSt7__cxx1112basic_stringIcSt11char_traitsIcESaIcEED2Ev.exit.i.i.i

_ZNKSt7__cxx1112basic_stringIcSt11char_traitsIcESaIcEE11_M_is_localEv.exit.i.i.i.i.i: ; preds = %1
  tail call void @_ZdlPv(ptr noundef %4) #28
  br label %_ZNSt7__cxx1112basic_stringIcSt11char_traitsIcESaIcEED2Ev.exit.i.i.i

_ZNSt7__cxx1112basic_stringIcSt11char_traitsIcESaIcEED2Ev.exit.i.i.i: ; preds = %_ZNKSt7__cxx1112basic_stringIcSt11char_traitsIcESaIcEE11_M_is_localEv.exit.i.i.i.i.i, %_ZNKSt7__cxx1112basic_stringIcSt11char_traitsIcESaIcEE11_M_is_localEv.exit.thread.i.i.i.i.i
  %10 = getelementptr inbounds nuw i8, ptr %0, i64 112
  %11 = load ptr, ptr %10, align 8, !tbaa !36
  %12 = getelementptr inbounds nuw i8, ptr %0, i64 128
  %13 = icmp eq ptr %11, %12
  br i1 %13, label %_ZNKSt7__cxx1112basic_stringIcSt11char_traitsIcESaIcEE11_M_is_localEv.exit.thread.i.i3.i.i.i, label %_ZNKSt7__cxx1112basic_stringIcSt11char_traitsIcESaIcEE11_M_is_localEv.exit.i.i2.i.i.i

_ZNKSt7__cxx1112basic_stringIcSt11char_traitsIcESaIcEE11_M_is_localEv.exit.thread.i.i3.i.i.i: ; preds = %_ZNSt7__cxx1112basic_stringIcSt11char_traitsIcESaIcEED2Ev.exit.i.i.i
  %14 = getelementptr inbounds nuw i8, ptr %0, i64 120
  %15 = load i64, ptr %14, align 8, !tbaa !39
  %16 = icmp ult i64 %15, 16
  tail call void @llvm.assume(i1 %16)
  br label %_ZNSt7__cxx1112basic_stringIcSt11char_traitsIcESaIcEED2Ev.exit4.i.i.i

_ZNKSt7__cxx1112basic_stringIcSt11char_traitsIcESaIcEE11_M_is_localEv.exit.i.i2.i.i.i: ; preds = %_ZNSt7__cxx1112basic_stringIcSt11char_traitsIcESaIcEED2Ev.exit.i.i.i
  tail call void @_ZdlPv(ptr noundef %11) #28
  br label %_ZNSt7__cxx1112basic_stringIcSt11char_traitsIcESaIcEED2Ev.exit4.i.i.i

_ZNSt7__cxx1112basic_stringIcSt11char_traitsIcESaIcEED2Ev.exit4.i.i.i: ; preds = %_ZNKSt7__cxx1112basic_stringIcSt11char_traitsIcESaIcEE11_M_is_localEv.exit.i.i2.i.i.i, %_ZNKSt7__cxx1112basic_stringIcSt11char_traitsIcESaIcEE11_M_is_localEv.exit.thread.i.i3.i.i.i
  %17 = getelementptr inbounds nuw i8, ptr %0, i64 64
  %18 = load ptr, ptr %17, align 8, !tbaa !36
  %19 = getelementptr inbounds nuw i8, ptr %0, i64 80
  %20 = icmp eq ptr %18, %19
  br i1 %20, label %_ZNKSt7__cxx1112basic_stringIcSt11char_traitsIcESaIcEE11_M_is_localEv.exit.thread.i.i6.i.i.i, label %_ZNKSt7__cxx1112basic_stringIcSt11char_traitsIcESaIcEE11_M_is_localEv.exit.i.i5.i.i.i

_ZNKSt7__cxx1112basic_stringIcSt11char_traitsIcESaIcEE11_M_is_localEv.exit.thread.i.i6.i.i.i: ; preds = %_ZNSt7__cxx1112basic_stringIcSt11char_traitsIcESaIcEED2Ev.exit4.i.i.i
  %21 = getelementptr inbounds nuw i8, ptr %0, i64 72
  %22 = load i64, ptr %21, align 8, !tbaa !39
  %23 = icmp ult i64 %22, 16
  tail call void @llvm.assume(i1 %23)
  br label %_ZNSt7__cxx1112basic_stringIcSt11char_traitsIcESaIcEED2Ev.exit7.i.i.i

_ZNKSt7__cxx1112basic_stringIcSt11char_traitsIcESaIcEE11_M_is_localEv.exit.i.i5.i.i.i: ; preds = %_ZNSt7__cxx1112basic_stringIcSt11char_traitsIcESaIcEED2Ev.exit4.i.i.i
  tail call void @_ZdlPv(ptr noundef %18) #28
  br label %_ZNSt7__cxx1112basic_stringIcSt11char_traitsIcESaIcEED2Ev.exit7.i.i.i

_ZNSt7__cxx1112basic_stringIcSt11char_traitsIcESaIcEED2Ev.exit7.i.i.i: ; preds = %_ZNKSt7__cxx1112basic_stringIcSt11char_traitsIcESaIcEE11_M_is_localEv.exit.i.i5.i.i.i, %_ZNKSt7__cxx1112basic_stringIcSt11char_traitsIcESaIcEE11_M_is_localEv.exit.thread.i.i6.i.i.i
  %24 = getelementptr inbounds nuw i8, ptr %0, i64 32
  %25 = load ptr, ptr %24, align 8, !tbaa !36
  %26 = getelementptr inbounds nuw i8, ptr %0, i64 48
  %27 = icmp eq ptr %25, %26
  br i1 %27, label %_ZNKSt7__cxx1112basic_stringIcSt11char_traitsIcESaIcEE11_M_is_localEv.exit.thread.i.i9.i.i.i, label %_ZNKSt7__cxx1112basic_stringIcSt11char_traitsIcESaIcEE11_M_is_localEv.exit.i.i8.i.i.i

_ZNKSt7__cxx1112basic_stringIcSt11char_traitsIcESaIcEE11_M_is_localEv.exit.thread.i.i9.i.i.i: ; preds = %_ZNSt7__cxx1112basic_stringIcSt11char_traitsIcESaIcEED2Ev.exit7.i.i.i
  %28 = getelementptr inbounds nuw i8, ptr %0, i64 40
  %29 = load i64, ptr %28, align 8, !tbaa !39
  %30 = icmp ult i64 %29, 16
  tail call void @llvm.assume(i1 %30)
  br label %_ZN14duckdb_parquet14DataPageHeaderD2Ev.exit

_ZNKSt7__cxx1112basic_stringIcSt11char_traitsIcESaIcEE11_M_is_localEv.exit.i.i8.i.i.i: ; preds = %_ZNSt7__cxx1112basic_stringIcSt11char_traitsIcESaIcEED2Ev.exit7.i.i.i
  tail call void @_ZdlPv(ptr noundef %25) #28
  br label %_ZN14duckdb_parquet14DataPageHeaderD2Ev.exit

_ZN14duckdb_parquet14DataPageHeaderD2Ev.exit:     ; preds = %_ZNKSt7__cxx1112basic_stringIcSt11char_traitsIcESaIcEE11_M_is_localEv.exit.thread.i.i9.i.i.i, %_ZNKSt7__cxx1112basic_stringIcSt11char_traitsIcESaIcEE11_M_is_localEv.exit.i.i8.i.i.i
  ret void
}